; Function Attrs: mustprogress uwtable
define noundef ptr @_ZN7rocksdb23CompressionContextCache8InstanceEv() local_unnamed_addr #0 align 2 personality ptr @__gxx_personality_v0 {
  %1 = load atomic i8, ptr @_ZGVZN7rocksdb23CompressionContextCache8InstanceEvE8instance acquire, align 8
  %2 = icmp eq i8 %1, 0
  br i1 %2, label %3, label %8, !prof !10

3:                                                ; preds = %0
  %4 = tail call i32 @__cxa_guard_acquire(ptr nonnull @_ZGVZN7rocksdb23CompressionContextCache8InstanceEvE8instance) #15
  %.not = icmp eq i32 %4, 0
  br i1 %.not, label %8, label %5

5:                                                ; preds = %3
  invoke void @_ZN7rocksdb23CompressionContextCacheC1Ev(ptr noundef nonnull align 8 dereferenceable(8) @_ZZN7rocksdb23CompressionContextCache8InstanceEvE8instance)
          to label %6 unwind label %9

6:                                                ; preds = %5
  %7 = tail call i32 @__cxa_atexit(ptr nonnull @_ZN7rocksdb23CompressionContextCacheD1Ev, ptr nonnull @_ZZN7rocksdb23CompressionContextCache8InstanceEvE8instance, ptr nonnull @__dso_handle) #15
  tail call void @__cxa_guard_release(ptr nonnull @_ZGVZN7rocksdb23CompressionContextCache8InstanceEvE8instance) #15
  br label %8

8:                                                ; preds = %6, %3, %0
  ret ptr @_ZZN7rocksdb23CompressionContextCache8InstanceEvE8instance

9:                                                ; preds = %5
  %10 = landingpad { ptr, i32 }
          cleanup
  tail call void @__cxa_guard_abort(ptr nonnull @_ZGVZN7rocksdb23CompressionContextCache8InstanceEvE8instance) #15
  resume { ptr, i32 } %10
}